target datalayout = "e-m:e-p270:32:32-p271:32:32-p272:64:64-i64:64-i128:128-f80:128-n8:16:32:64-S128"
target triple = "x86_64-pc-linux-gnu"

%struct._typeobject = type { %struct.PyVarObject, ptr, i64, i64, ptr, i64, ptr, ptr, ptr, ptr, ptr, ptr, ptr, ptr, ptr, ptr, ptr, ptr, ptr, i64, ptr, ptr, ptr, ptr, i64, ptr, ptr, ptr, ptr, ptr, ptr, ptr, ptr, ptr, i64, ptr, ptr, ptr, ptr, ptr, ptr, ptr, ptr, ptr, ptr, ptr, i32, ptr, ptr, i8, i16 }
%struct.PyVarObject = type { %struct._object, i64 }
%struct._object = type { %union.anon, ptr }
%union.anon = type { i64 }

@.str.20 = private unnamed_addr constant [36 x i8] c"../cpython/Modules/_testcapi/type.c\00", align 1
@PyExc_TypeError = external global ptr, align 8
@.str.36 = private unnamed_addr constant [24 x i8] c"argument must be a type\00", align 1
@.str.37 = private unnamed_addr constant [17 x i8] c"PyErr_Occurred()\00", align 1
@__PRETTY_FUNCTION__.type_get_version = private unnamed_addr constant [51 x i8] c"PyObject *type_get_version(PyObject *, PyObject *)\00", align 1

; Function Attrs: inlinehint nounwind uwtable
define internal i32 @PyType_HasFeature(ptr noundef %0, i64 noundef %1) #2 {
  %3 = alloca ptr, align 8
  %4 = alloca i64, align 8
  %5 = alloca i64, align 8
  store ptr %0, ptr %3, align 8, !tbaa !26
  store i64 %1, ptr %4, align 8, !tbaa !30
  call void @llvm.lifetime.start.p0(i64 8, ptr %5) #7
  %6 = load ptr, ptr %3, align 8, !tbaa !26
  %7 = getelementptr inbounds nuw %struct._typeobject, ptr %6, i32 0, i32 19
  %8 = load i64, ptr %7, align 8, !tbaa !31
  store i64 %8, ptr %5, align 8, !tbaa !30
  %9 = load i64, ptr %5, align 8, !tbaa !30
  %10 = load i64, ptr %4, align 8, !tbaa !30
  %11 = and i64 %9, %10
  %12 = icmp ne i64 %11, 0
  %13 = zext i1 %12 to i32
  call void @llvm.lifetime.end.p0(i64 8, ptr %5) #7
  ret i32 %13
}

; Function Attrs: inlinehint nounwind uwtable
define internal ptr @_Py_TYPE(ptr noundef %0) #2 {
  %2 = alloca ptr, align 8
  store ptr %0, ptr %2, align 8, !tbaa !3
  %3 = load ptr, ptr %2, align 8, !tbaa !3
  %4 = getelementptr inbounds nuw %struct._object, ptr %3, i32 0, i32 1
  %5 = load ptr, ptr %4, align 8, !tbaa !32
  ret ptr %5
}

; Function Attrs: inlinehint nounwind uwtable
define internal i32 @PyType_Check(ptr noundef %0) #2 {
  %2 = alloca ptr, align 8
  store ptr %0, ptr %2, align 8, !tbaa !3
  %3 = load ptr, ptr %2, align 8, !tbaa !3
  %4 = call ptr @_Py_TYPE(ptr noundef %3)
  %5 = call i32 @PyType_HasFeature(ptr noundef %4, i64 noundef 2147483648)
  ret i32 %5
}

; Function Attrs: nounwind uwtable
define internal ptr @type_get_version(ptr noundef %0, ptr noundef %1) #0 {
  %3 = alloca ptr, align 8
  %4 = alloca ptr, align 8
  %5 = alloca ptr, align 8
  %6 = alloca ptr, align 8
  %7 = alloca i32, align 4
  store ptr %0, ptr %4, align 8, !tbaa !3
  store ptr %1, ptr %5, align 8, !tbaa !3
  %8 = load ptr, ptr %5, align 8, !tbaa !3
  %9 = call i32 @PyType_Check(ptr noundef %8)
  %10 = icmp ne i32 %9, 0
  br i1 %10, label %13, label %11

11:                                               ; preds = %2
  %12 = load ptr, ptr @PyExc_TypeError, align 8, !tbaa !3
  call void @PyErr_SetString(ptr noundef %12, ptr noundef @.str.36)
  store ptr null, ptr %3, align 8
  br label %31

13:                                               ; preds = %2
  call void @llvm.lifetime.start.p0(i64 8, ptr %6) #7
  %14 = load ptr, ptr %5, align 8, !tbaa !3
  %15 = getelementptr inbounds nuw %struct._typeobject, ptr %14, i32 0, i32 46
  %16 = load i32, ptr %15, align 8, !tbaa !25
  %17 = zext i32 %16 to i64
  %18 = call ptr @PyLong_FromUnsignedLong(i64 noundef %17)
  store ptr %18, ptr %6, align 8, !tbaa !3
  %19 = load ptr, ptr %6, align 8, !tbaa !3
  %20 = icmp eq ptr %19, null
  br i1 %20, label %21, label %28

21:                                               ; preds = %13
  %22 = call ptr @PyErr_Occurred()
  %23 = icmp ne ptr %22, null
  br i1 %23, label %24, label %25

24:                                               ; preds = %21
  br label %27

25:                                               ; preds = %21
  call void @__assert_fail(ptr noundef @.str.37, ptr noundef @.str.20, i32 noundef 147, ptr noundef @__PRETTY_FUNCTION__.type_get_version) #6
  unreachable

26:                                               ; No predecessors!
  br label %27

27:                                               ; preds = %26, %24
  store ptr null, ptr %3, align 8
  store i32 1, ptr %7, align 4
  br label %30

28:                                               ; preds = %13
  %29 = load ptr, ptr %6, align 8, !tbaa !3
  store ptr %29, ptr %3, align 8
  store i32 1, ptr %7, align 4
  br label %30

30:                                               ; preds = %28, %27
  call void @llvm.lifetime.end.p0(i64 8, ptr %6) #7
  br label %31

31:                                               ; preds = %30, %11
  %32 = load ptr, ptr %3, align 8
  ret ptr %32
}