; Function Attrs: nounwind uwtable
define internal ptr @type_get_version(ptr readnone captures(none) %0, ptr noundef readonly captures(none) %1) #0 {
  %3 = getelementptr i8, ptr %1, i64 8
  %.val = load ptr, ptr %3, align 8, !tbaa !3
  %4 = getelementptr i8, ptr %.val, i64 168
  %.val.val = load i64, ptr %4, align 8, !tbaa !9
  %5 = and i64 %.val.val, 2147483648
  %.not7 = icmp eq i64 %5, 0
  br i1 %.not7, label %6, label %8

6:                                                ; preds = %2
  %7 = load ptr, ptr @PyExc_TypeError, align 8, !tbaa !22
  tail call void @PyErr_SetString(ptr noundef %7, ptr noundef nonnull @.str.36) #3
  br label %17

8:                                                ; preds = %2
  %9 = getelementptr inbounds nuw i8, ptr %1, i64 384
  %10 = load i32, ptr %9, align 8, !tbaa !27
  %11 = zext i32 %10 to i64
  %12 = tail call ptr @PyLong_FromUnsignedLong(i64 noundef %11) #3
  %13 = icmp eq ptr %12, null
  br i1 %13, label %14, label %17

14:                                               ; preds = %8
  %15 = tail call ptr @PyErr_Occurred() #3
  %.not6 = icmp eq ptr %15, null
  br i1 %.not6, label %16, label %17

16:                                               ; preds = %14
  tail call void @__assert_fail(ptr noundef nonnull @.str.37, ptr noundef nonnull @.str.20, i32 noundef 147, ptr noundef nonnull @__PRETTY_FUNCTION__.type_get_version) #4
  unreachable

17:                                               ; preds = %14, %8, %6
  %.0 = phi ptr [ null, %6 ], [ null, %14 ], [ %12, %8 ]
  ret ptr %.0
}